target datalayout = "e-m:e-p270:32:32-p271:32:32-p272:64:64-i64:64-i128:128-f80:128-n8:16:32:64-S128"
target triple = "x86_64-pc-linux-gnu"

%struct.SingleChannelElement = type { %struct.IndividualChannelStream, %struct.TemporalNoiseShaping, %struct.Pulse, [128 x i32], [128 x i32], [128 x i32], [128 x i8], [128 x i8], [128 x float], [128 x float], [4 x i8], [1024 x float], [1024 x float], [2048 x float], [672 x %struct.PredictorState] }
%struct.IndividualChannelStream = type { i8, [2 x i32], [2 x i8], [8 x i8], ptr, ptr, i32, i32, i32, [8 x i8], float }
%struct.TemporalNoiseShaping = type { i32, [8 x i32], [8 x [4 x i32]], [8 x [4 x i32]], [8 x [4 x i32]], [8 x [4 x [20 x i32]]], [8 x [4 x [20 x float]]] }
%struct.Pulse = type { i32, i32, [4 x i32], [4 x i32] }
%struct.PredictorState = type { float, float, float, float, float, float, float, float }

; Function Attrs: alwaysinline nounwind willreturn memory(none) uwtable
define internal i32 @av_clip_c(i32 noundef %0, i32 noundef %1, i32 noundef %2) #6 {
  %4 = alloca i32, align 4
  %5 = alloca i32, align 4
  %6 = alloca i32, align 4
  %7 = alloca i32, align 4
  store i32 %0, ptr %5, align 4, !tbaa !13
  store i32 %1, ptr %6, align 4, !tbaa !13
  store i32 %2, ptr %7, align 4, !tbaa !13
  %8 = load i32, ptr %5, align 4, !tbaa !13
  %9 = load i32, ptr %6, align 4, !tbaa !13
  %10 = icmp slt i32 %8, %9
  br i1 %10, label %11, label %13

11:                                               ; preds = %3
  %12 = load i32, ptr %6, align 4, !tbaa !13
  store i32 %12, ptr %4, align 4
  br label %21

13:                                               ; preds = %3
  %14 = load i32, ptr %5, align 4, !tbaa !13
  %15 = load i32, ptr %7, align 4, !tbaa !13
  %16 = icmp sgt i32 %14, %15
  br i1 %16, label %17, label %19

17:                                               ; preds = %13
  %18 = load i32, ptr %7, align 4, !tbaa !13
  store i32 %18, ptr %4, align 4
  br label %21

19:                                               ; preds = %13
  %20 = load i32, ptr %5, align 4, !tbaa !13
  store i32 %20, ptr %4, align 4
  br label %21

21:                                               ; preds = %19, %17, %11
  %22 = load i32, ptr %4, align 4
  ret i32 %22
}

; Function Attrs: nounwind uwtable
define internal void @set_special_band_scalefactors(ptr noundef %0, ptr noundef %1) #0 {
  %3 = alloca ptr, align 8
  %4 = alloca ptr, align 8
  %5 = alloca i32, align 4
  %6 = alloca i32, align 4
  %7 = alloca i32, align 4
  %8 = alloca i32, align 4
  %9 = alloca i32, align 4
  %10 = alloca i32, align 4
  store ptr %0, ptr %3, align 8, !tbaa !4
  store ptr %1, ptr %4, align 8, !tbaa !22
  call void @llvm.lifetime.start.p0(i64 4, ptr %5) #12
  call void @llvm.lifetime.start.p0(i64 4, ptr %6) #12
  call void @llvm.lifetime.start.p0(i64 4, ptr %7) #12
  store i32 -255, ptr %7, align 4, !tbaa !13
  call void @llvm.lifetime.start.p0(i64 4, ptr %8) #12
  store i32 0, ptr %8, align 4, !tbaa !13
  call void @llvm.lifetime.start.p0(i64 4, ptr %9) #12
  store i32 0, ptr %9, align 4, !tbaa !13
  store i32 0, ptr %5, align 4, !tbaa !13
  br label %11

11:                                               ; preds = %141, %2
  %12 = load i32, ptr %5, align 4, !tbaa !13
  %13 = load ptr, ptr %4, align 8, !tbaa !22
  %14 = getelementptr inbounds nuw %struct.SingleChannelElement, ptr %13, i32 0, i32 0
  %15 = getelementptr inbounds nuw %struct.IndividualChannelStream, ptr %14, i32 0, i32 7
  %16 = load i32, ptr %15, align 4, !tbaa !70
  %17 = icmp slt i32 %12, %16
  br i1 %17, label %18, label %152

18:                                               ; preds = %11
  store i32 0, ptr %6, align 4, !tbaa !13
  br label %19

19:                                               ; preds = %137, %18
  %20 = load i32, ptr %6, align 4, !tbaa !13
  %21 = load ptr, ptr %4, align 8, !tbaa !22
  %22 = getelementptr inbounds nuw %struct.SingleChannelElement, ptr %21, i32 0, i32 0
  %23 = getelementptr inbounds nuw %struct.IndividualChannelStream, ptr %22, i32 0, i32 6
  %24 = load i32, ptr %23, align 8, !tbaa !79
  %25 = icmp slt i32 %20, %24
  br i1 %25, label %26, label %140

26:                                               ; preds = %19
  %27 = load ptr, ptr %4, align 8, !tbaa !22
  %28 = getelementptr inbounds nuw %struct.SingleChannelElement, ptr %27, i32 0, i32 6
  %29 = load i32, ptr %5, align 4, !tbaa !13
  %30 = mul nsw i32 %29, 16
  %31 = load i32, ptr %6, align 4, !tbaa !13
  %32 = add nsw i32 %30, %31
  %33 = sext i32 %32 to i64
  %34 = getelementptr inbounds [128 x i8], ptr %28, i64 0, i64 %33
  %35 = load i8, ptr %34, align 1, !tbaa !80
  %36 = icmp ne i8 %35, 0
  br i1 %36, label %37, label %38

37:                                               ; preds = %26
  br label %137

38:                                               ; preds = %26
  %39 = load ptr, ptr %4, align 8, !tbaa !22
  %40 = getelementptr inbounds nuw %struct.SingleChannelElement, ptr %39, i32 0, i32 3
  %41 = load i32, ptr %5, align 4, !tbaa !13
  %42 = mul nsw i32 %41, 16
  %43 = load i32, ptr %6, align 4, !tbaa !13
  %44 = add nsw i32 %42, %43
  %45 = sext i32 %44 to i64
  %46 = getelementptr inbounds [128 x i32], ptr %40, i64 0, i64 %45
  %47 = load i32, ptr %46, align 4, !tbaa !13
  %48 = icmp eq i32 %47, 15
  br i1 %48, label %60, label %49

49:                                               ; preds = %38
  %50 = load ptr, ptr %4, align 8, !tbaa !22
  %51 = getelementptr inbounds nuw %struct.SingleChannelElement, ptr %50, i32 0, i32 3
  %52 = load i32, ptr %5, align 4, !tbaa !13
  %53 = mul nsw i32 %52, 16
  %54 = load i32, ptr %6, align 4, !tbaa !13
  %55 = add nsw i32 %53, %54
  %56 = sext i32 %55 to i64
  %57 = getelementptr inbounds [128 x i32], ptr %51, i64 0, i64 %56
  %58 = load i32, ptr %57, align 4, !tbaa !13
  %59 = icmp eq i32 %58, 14
  br i1 %59, label %60, label %85

60:                                               ; preds = %49, %38
  %61 = load ptr, ptr %4, align 8, !tbaa !22
  %62 = getelementptr inbounds nuw %struct.SingleChannelElement, ptr %61, i32 0, i32 8
  %63 = load i32, ptr %5, align 4, !tbaa !13
  %64 = mul nsw i32 %63, 16
  %65 = load i32, ptr %6, align 4, !tbaa !13
  %66 = add nsw i32 %64, %65
  %67 = sext i32 %66 to i64
  %68 = getelementptr inbounds [128 x float], ptr %62, i64 0, i64 %67
  %69 = load float, ptr %68, align 4, !tbaa !15
  %70 = call nsz float @llvm.log2.f32(float %69)
  %71 = fmul nsz float %70, 2.000000e+00
  %72 = call nsz float @llvm.round.f32(float %71)
  %73 = fptosi float %72 to i32
  %74 = call i32 @av_clip_c(i32 noundef %73, i32 noundef -155, i32 noundef 100) #13
  %75 = load ptr, ptr %4, align 8, !tbaa !22
  %76 = getelementptr inbounds nuw %struct.SingleChannelElement, ptr %75, i32 0, i32 5
  %77 = load i32, ptr %5, align 4, !tbaa !13
  %78 = mul nsw i32 %77, 16
  %79 = load i32, ptr %6, align 4, !tbaa !13
  %80 = add nsw i32 %78, %79
  %81 = sext i32 %80 to i64
  %82 = getelementptr inbounds [128 x i32], ptr %76, i64 0, i64 %81
  store i32 %74, ptr %82, align 4, !tbaa !13
  %83 = load i32, ptr %9, align 4, !tbaa !13
  %84 = add nsw i32 %83, 1
  store i32 %84, ptr %9, align 4, !tbaa !13
  br label %136

85:                                               ; preds = %49
  %86 = load ptr, ptr %4, align 8, !tbaa !22
  %87 = getelementptr inbounds nuw %struct.SingleChannelElement, ptr %86, i32 0, i32 3
  %88 = load i32, ptr %5, align 4, !tbaa !13
  %89 = mul nsw i32 %88, 16
  %90 = load i32, ptr %6, align 4, !tbaa !13
  %91 = add nsw i32 %89, %90
  %92 = sext i32 %91 to i64
  %93 = getelementptr inbounds [128 x i32], ptr %87, i64 0, i64 %92
  %94 = load i32, ptr %93, align 4, !tbaa !13
  %95 = icmp eq i32 %94, 13
  br i1 %95, label %96, label %135

96:                                               ; preds = %85
  %97 = load ptr, ptr %4, align 8, !tbaa !22
  %98 = getelementptr inbounds nuw %struct.SingleChannelElement, ptr %97, i32 0, i32 9
  %99 = load i32, ptr %5, align 4, !tbaa !13
  %100 = mul nsw i32 %99, 16
  %101 = load i32, ptr %6, align 4, !tbaa !13
  %102 = add nsw i32 %100, %101
  %103 = sext i32 %102 to i64
  %104 = getelementptr inbounds [128 x float], ptr %98, i64 0, i64 %103
  %105 = load float, ptr %104, align 4, !tbaa !15
  %106 = call nsz float @llvm.log2.f32(float %105)
  %107 = fmul nsz float %106, 2.000000e+00
  %108 = call nsz float @llvm.ceil.f32(float %107)
  %109 = fadd nsz float 3.000000e+00, %108
  %110 = fptosi float %109 to i32
  %111 = call i32 @av_clip_c(i32 noundef %110, i32 noundef -100, i32 noundef 155) #13
  %112 = load ptr, ptr %4, align 8, !tbaa !22
  %113 = getelementptr inbounds nuw %struct.SingleChannelElement, ptr %112, i32 0, i32 5
  %114 = load i32, ptr %5, align 4, !tbaa !13
  %115 = mul nsw i32 %114, 16
  %116 = load i32, ptr %6, align 4, !tbaa !13
  %117 = add nsw i32 %115, %116
  %118 = sext i32 %117 to i64
  %119 = getelementptr inbounds [128 x i32], ptr %113, i64 0, i64 %118
  store i32 %111, ptr %119, align 4, !tbaa !13
  %120 = load i32, ptr %7, align 4, !tbaa !13
  %121 = icmp eq i32 %120, -255
  br i1 %121, label %122, label %132

122:                                              ; preds = %96
  %123 = load ptr, ptr %4, align 8, !tbaa !22
  %124 = getelementptr inbounds nuw %struct.SingleChannelElement, ptr %123, i32 0, i32 5
  %125 = load i32, ptr %5, align 4, !tbaa !13
  %126 = mul nsw i32 %125, 16
  %127 = load i32, ptr %6, align 4, !tbaa !13
  %128 = add nsw i32 %126, %127
  %129 = sext i32 %128 to i64
  %130 = getelementptr inbounds [128 x i32], ptr %124, i64 0, i64 %129
  %131 = load i32, ptr %130, align 4, !tbaa !13
  store i32 %131, ptr %7, align 4, !tbaa !13
  br label %132

132:                                              ; preds = %122, %96
  %133 = load i32, ptr %9, align 4, !tbaa !13
  %134 = add nsw i32 %133, 1
  store i32 %134, ptr %9, align 4, !tbaa !13
  br label %135

135:                                              ; preds = %132, %85
  br label %136

136:                                              ; preds = %135, %60
  br label %137

137:                                              ; preds = %136, %37
  %138 = load i32, ptr %6, align 4, !tbaa !13
  %139 = add nsw i32 %138, 1
  store i32 %139, ptr %6, align 4, !tbaa !13
  br label %19, !llvm.loop !156

140:                                              ; preds = %19
  br label %141

141:                                              ; preds = %140
  %142 = load ptr, ptr %4, align 8, !tbaa !22
  %143 = getelementptr inbounds nuw %struct.SingleChannelElement, ptr %142, i32 0, i32 0
  %144 = getelementptr inbounds nuw %struct.IndividualChannelStream, ptr %143, i32 0, i32 3
  %145 = load i32, ptr %5, align 4, !tbaa !13
  %146 = sext i32 %145 to i64
  %147 = getelementptr inbounds [8 x i8], ptr %144, i64 0, i64 %146
  %148 = load i8, ptr %147, align 1, !tbaa !80
  %149 = zext i8 %148 to i32
  %150 = load i32, ptr %5, align 4, !tbaa !13
  %151 = add nsw i32 %150, %149
  store i32 %151, ptr %5, align 4, !tbaa !13
  br label %11, !llvm.loop !157

152:                                              ; preds = %11
  %153 = load i32, ptr %9, align 4, !tbaa !13
  %154 = icmp ne i32 %153, 0
  br i1 %154, label %156, label %155

155:                                              ; preds = %152
  store i32 1, ptr %10, align 4
  br label %281

156:                                              ; preds = %152
  store i32 0, ptr %5, align 4, !tbaa !13
  br label %157

157:                                              ; preds = %269, %156
  %158 = load i32, ptr %5, align 4, !tbaa !13
  %159 = load ptr, ptr %4, align 8, !tbaa !22
  %160 = getelementptr inbounds nuw %struct.SingleChannelElement, ptr %159, i32 0, i32 0
  %161 = getelementptr inbounds nuw %struct.IndividualChannelStream, ptr %160, i32 0, i32 7
  %162 = load i32, ptr %161, align 4, !tbaa !70
  %163 = icmp slt i32 %158, %162
  br i1 %163, label %164, label %280

164:                                              ; preds = %157
  store i32 0, ptr %6, align 4, !tbaa !13
  br label %165

165:                                              ; preds = %265, %164
  %166 = load i32, ptr %6, align 4, !tbaa !13
  %167 = load ptr, ptr %4, align 8, !tbaa !22
  %168 = getelementptr inbounds nuw %struct.SingleChannelElement, ptr %167, i32 0, i32 0
  %169 = getelementptr inbounds nuw %struct.IndividualChannelStream, ptr %168, i32 0, i32 6
  %170 = load i32, ptr %169, align 8, !tbaa !79
  %171 = icmp slt i32 %166, %170
  br i1 %171, label %172, label %268

172:                                              ; preds = %165
  %173 = load ptr, ptr %4, align 8, !tbaa !22
  %174 = getelementptr inbounds nuw %struct.SingleChannelElement, ptr %173, i32 0, i32 6
  %175 = load i32, ptr %5, align 4, !tbaa !13
  %176 = mul nsw i32 %175, 16
  %177 = load i32, ptr %6, align 4, !tbaa !13
  %178 = add nsw i32 %176, %177
  %179 = sext i32 %178 to i64
  %180 = getelementptr inbounds [128 x i8], ptr %174, i64 0, i64 %179
  %181 = load i8, ptr %180, align 1, !tbaa !80
  %182 = icmp ne i8 %181, 0
  br i1 %182, label %183, label %184

183:                                              ; preds = %172
  br label %265

184:                                              ; preds = %172
  %185 = load ptr, ptr %4, align 8, !tbaa !22
  %186 = getelementptr inbounds nuw %struct.SingleChannelElement, ptr %185, i32 0, i32 3
  %187 = load i32, ptr %5, align 4, !tbaa !13
  %188 = mul nsw i32 %187, 16
  %189 = load i32, ptr %6, align 4, !tbaa !13
  %190 = add nsw i32 %188, %189
  %191 = sext i32 %190 to i64
  %192 = getelementptr inbounds [128 x i32], ptr %186, i64 0, i64 %191
  %193 = load i32, ptr %192, align 4, !tbaa !13
  %194 = icmp eq i32 %193, 15
  br i1 %194, label %206, label %195

195:                                              ; preds = %184
  %196 = load ptr, ptr %4, align 8, !tbaa !22
  %197 = getelementptr inbounds nuw %struct.SingleChannelElement, ptr %196, i32 0, i32 3
  %198 = load i32, ptr %5, align 4, !tbaa !13
  %199 = mul nsw i32 %198, 16
  %200 = load i32, ptr %6, align 4, !tbaa !13
  %201 = add nsw i32 %199, %200
  %202 = sext i32 %201 to i64
  %203 = getelementptr inbounds [128 x i32], ptr %197, i64 0, i64 %202
  %204 = load i32, ptr %203, align 4, !tbaa !13
  %205 = icmp eq i32 %204, 14
  br i1 %205, label %206, label %229

206:                                              ; preds = %195, %184
  %207 = load ptr, ptr %4, align 8, !tbaa !22
  %208 = getelementptr inbounds nuw %struct.SingleChannelElement, ptr %207, i32 0, i32 5
  %209 = load i32, ptr %5, align 4, !tbaa !13
  %210 = mul nsw i32 %209, 16
  %211 = load i32, ptr %6, align 4, !tbaa !13
  %212 = add nsw i32 %210, %211
  %213 = sext i32 %212 to i64
  %214 = getelementptr inbounds [128 x i32], ptr %208, i64 0, i64 %213
  %215 = load i32, ptr %214, align 4, !tbaa !13
  %216 = load i32, ptr %8, align 4, !tbaa !13
  %217 = sub nsw i32 %216, 60
  %218 = load i32, ptr %8, align 4, !tbaa !13
  %219 = add nsw i32 %218, 60
  %220 = call i32 @av_clip_c(i32 noundef %215, i32 noundef %217, i32 noundef %219) #13
  store i32 %220, ptr %8, align 4, !tbaa !13
  %221 = load ptr, ptr %4, align 8, !tbaa !22
  %222 = getelementptr inbounds nuw %struct.SingleChannelElement, ptr %221, i32 0, i32 5
  %223 = load i32, ptr %5, align 4, !tbaa !13
  %224 = mul nsw i32 %223, 16
  %225 = load i32, ptr %6, align 4, !tbaa !13
  %226 = add nsw i32 %224, %225
  %227 = sext i32 %226 to i64
  %228 = getelementptr inbounds [128 x i32], ptr %222, i64 0, i64 %227
  store i32 %220, ptr %228, align 4, !tbaa !13
  br label %264

229:                                              ; preds = %195
  %230 = load ptr, ptr %4, align 8, !tbaa !22
  %231 = getelementptr inbounds nuw %struct.SingleChannelElement, ptr %230, i32 0, i32 3
  %232 = load i32, ptr %5, align 4, !tbaa !13
  %233 = mul nsw i32 %232, 16
  %234 = load i32, ptr %6, align 4, !tbaa !13
  %235 = add nsw i32 %233, %234
  %236 = sext i32 %235 to i64
  %237 = getelementptr inbounds [128 x i32], ptr %231, i64 0, i64 %236
  %238 = load i32, ptr %237, align 4, !tbaa !13
  %239 = icmp eq i32 %238, 13
  br i1 %239, label %240, label %263

240:                                              ; preds = %229
  %241 = load ptr, ptr %4, align 8, !tbaa !22
  %242 = getelementptr inbounds nuw %struct.SingleChannelElement, ptr %241, i32 0, i32 5
  %243 = load i32, ptr %5, align 4, !tbaa !13
  %244 = mul nsw i32 %243, 16
  %245 = load i32, ptr %6, align 4, !tbaa !13
  %246 = add nsw i32 %244, %245
  %247 = sext i32 %246 to i64
  %248 = getelementptr inbounds [128 x i32], ptr %242, i64 0, i64 %247
  %249 = load i32, ptr %248, align 4, !tbaa !13
  %250 = load i32, ptr %7, align 4, !tbaa !13
  %251 = sub nsw i32 %250, 60
  %252 = load i32, ptr %7, align 4, !tbaa !13
  %253 = add nsw i32 %252, 60
  %254 = call i32 @av_clip_c(i32 noundef %249, i32 noundef %251, i32 noundef %253) #13
  store i32 %254, ptr %7, align 4, !tbaa !13
  %255 = load ptr, ptr %4, align 8, !tbaa !22
  %256 = getelementptr inbounds nuw %struct.SingleChannelElement, ptr %255, i32 0, i32 5
  %257 = load i32, ptr %5, align 4, !tbaa !13
  %258 = mul nsw i32 %257, 16
  %259 = load i32, ptr %6, align 4, !tbaa !13
  %260 = add nsw i32 %258, %259
  %261 = sext i32 %260 to i64
  %262 = getelementptr inbounds [128 x i32], ptr %256, i64 0, i64 %261
  store i32 %254, ptr %262, align 4, !tbaa !13
  br label %263

263:                                              ; preds = %240, %229
  br label %264

264:                                              ; preds = %263, %206
  br label %265

265:                                              ; preds = %264, %183
  %266 = load i32, ptr %6, align 4, !tbaa !13
  %267 = add nsw i32 %266, 1
  store i32 %267, ptr %6, align 4, !tbaa !13
  br label %165, !llvm.loop !158

268:                                              ; preds = %165
  br label %269

269:                                              ; preds = %268
  %270 = load ptr, ptr %4, align 8, !tbaa !22
  %271 = getelementptr inbounds nuw %struct.SingleChannelElement, ptr %270, i32 0, i32 0
  %272 = getelementptr inbounds nuw %struct.IndividualChannelStream, ptr %271, i32 0, i32 3
  %273 = load i32, ptr %5, align 4, !tbaa !13
  %274 = sext i32 %273 to i64
  %275 = getelementptr inbounds [8 x i8], ptr %272, i64 0, i64 %274
  %276 = load i8, ptr %275, align 1, !tbaa !80
  %277 = zext i8 %276 to i32
  %278 = load i32, ptr %5, align 4, !tbaa !13
  %279 = add nsw i32 %278, %277
  store i32 %279, ptr %5, align 4, !tbaa !13
  br label %157, !llvm.loop !159

280:                                              ; preds = %157
  store i32 0, ptr %10, align 4
  br label %281

281:                                              ; preds = %280, %155
  call void @llvm.lifetime.end.p0(i64 4, ptr %9) #12
  call void @llvm.lifetime.end.p0(i64 4, ptr %8) #12
  call void @llvm.lifetime.end.p0(i64 4, ptr %7) #12
  call void @llvm.lifetime.end.p0(i64 4, ptr %6) #12
  call void @llvm.lifetime.end.p0(i64 4, ptr %5) #12
  %282 = load i32, ptr %10, align 4
  switch i32 %282, label %284 [
    i32 0, label %283
    i32 1, label %283
  ]

283:                                              ; preds = %281, %281
  ret void

284:                                              ; preds = %281
  unreachable
}