; Function Attrs: nofree norecurse nosync nounwind memory(argmem: readwrite) uwtable
define internal void @set_special_band_scalefactors(ptr readnone captures(none) %0, ptr noundef captures(none) %1) #3 {
  %3 = getelementptr inbounds nuw i8, ptr %1, i64 44
  %4 = load i32, ptr %3, align 4, !tbaa !59
  %5 = icmp sgt i32 %4, 0
  br i1 %5, label %.preheader95.lr.ph, label %.loopexit

.preheader95.lr.ph:                               ; preds = %2
  %6 = getelementptr inbounds nuw i8, ptr %1, i64 40
  %7 = load i32, ptr %6, align 8, !tbaa !68
  %8 = icmp sgt i32 %7, 0
  %9 = getelementptr inbounds nuw i8, ptr %1, i64 7180
  %10 = getelementptr inbounds nuw i8, ptr %1, i64 5644
  %11 = getelementptr inbounds nuw i8, ptr %1, i64 7948
  %12 = getelementptr inbounds nuw i8, ptr %1, i64 6668
  %13 = getelementptr inbounds nuw i8, ptr %1, i64 7436
  %14 = getelementptr inbounds nuw i8, ptr %1, i64 14
  br i1 %8, label %.preheader95.us.preheader, label %.loopexit

.preheader95.us.preheader:                        ; preds = %.preheader95.lr.ph
  %wide.trip.count = zext nneg i32 %7 to i64
  br label %.preheader95.us

.preheader95.us:                                  ; preds = %.preheader95.us.preheader, %._crit_edge.us
  %.0102.us = phi i32 [ %.2.us, %._crit_edge.us ], [ 0, %.preheader95.us.preheader ]
  %.077101.us = phi i32 [ %.279.us, %._crit_edge.us ], [ -255, %.preheader95.us.preheader ]
  %.082100.us = phi i32 [ %51, %._crit_edge.us ], [ 0, %.preheader95.us.preheader ]
  %15 = shl nsw i32 %.082100.us, 4
  %16 = zext nneg i32 %15 to i64
  br label %17

17:                                               ; preds = %.preheader95.us, %46
  %indvars.iv = phi i64 [ 0, %.preheader95.us ], [ %indvars.iv.next, %46 ]
  %.198.us = phi i32 [ %.0102.us, %.preheader95.us ], [ %.2.us, %46 ]
  %.17897.us = phi i32 [ %.077101.us, %.preheader95.us ], [ %.279.us, %46 ]
  %18 = add nuw nsw i64 %indvars.iv, %16
  %19 = getelementptr inbounds nuw [128 x i8], ptr %9, i64 0, i64 %18
  %20 = load i8, ptr %19, align 1, !tbaa !77
  %.not87.us = icmp eq i8 %20, 0
  br i1 %.not87.us, label %21, label %46

21:                                               ; preds = %17
  %22 = getelementptr inbounds nuw [128 x i32], ptr %10, i64 0, i64 %18
  %23 = load i32, ptr %22, align 4, !tbaa !83
  switch i32 %23, label %46 [
    i32 15, label %36
    i32 14, label %36
    i32 13, label %24
  ]

24:                                               ; preds = %21
  %25 = getelementptr inbounds nuw [128 x float], ptr %11, i64 0, i64 %18
  %26 = load float, ptr %25, align 4, !tbaa !76
  %27 = tail call nsz float @llvm.log2.f32(float %26)
  %28 = fmul nsz float %27, 2.000000e+00
  %29 = tail call nsz float @llvm.ceil.f32(float %28)
  %30 = fadd nsz float %29, 3.000000e+00
  %31 = fptosi float %30 to i32
  %32 = tail call i32 @llvm.smax.i32(i32 %31, i32 -100)
  %.0.i89.us = tail call i32 @llvm.smin.i32(i32 %32, i32 155)
  %33 = getelementptr inbounds nuw [128 x i32], ptr %12, i64 0, i64 %18
  store i32 %.0.i89.us, ptr %33, align 4, !tbaa !83
  %34 = icmp eq i32 %.17897.us, -255
  %spec.select.us = select i1 %34, i32 %.0.i89.us, i32 %.17897.us
  %35 = add nsw i32 %.198.us, 1
  br label %46

36:                                               ; preds = %21, %21
  %37 = getelementptr inbounds nuw [128 x float], ptr %13, i64 0, i64 %18
  %38 = load float, ptr %37, align 4, !tbaa !76
  %39 = tail call nsz float @llvm.log2.f32(float %38)
  %40 = fmul nsz float %39, 2.000000e+00
  %41 = tail call nsz float @llvm.round.f32(float %40)
  %42 = fptosi float %41 to i32
  %43 = tail call i32 @llvm.smax.i32(i32 %42, i32 -155)
  %.0.i.us = tail call i32 @llvm.smin.i32(i32 %43, i32 100)
  %44 = getelementptr inbounds nuw [128 x i32], ptr %12, i64 0, i64 %18
  store i32 %.0.i.us, ptr %44, align 4, !tbaa !83
  %45 = add nsw i32 %.198.us, 1
  br label %46

46:                                               ; preds = %36, %24, %21, %17
  %.279.us = phi i32 [ %.17897.us, %17 ], [ %.17897.us, %36 ], [ %spec.select.us, %24 ], [ %.17897.us, %21 ]
  %.2.us = phi i32 [ %.198.us, %17 ], [ %45, %36 ], [ %35, %24 ], [ %.198.us, %21 ]
  %indvars.iv.next = add nuw nsw i64 %indvars.iv, 1
  %exitcond.not = icmp eq i64 %indvars.iv.next, %wide.trip.count
  br i1 %exitcond.not, label %._crit_edge.us, label %17, !llvm.loop !163

._crit_edge.us:                                   ; preds = %46
  %47 = zext nneg i32 %.082100.us to i64
  %48 = getelementptr inbounds nuw [8 x i8], ptr %14, i64 0, i64 %47
  %49 = load i8, ptr %48, align 1, !tbaa !77
  %50 = zext i8 %49 to i32
  %51 = add nuw nsw i32 %.082100.us, %50
  %52 = icmp slt i32 %51, %4
  br i1 %52, label %.preheader95.us, label %._crit_edge103, !llvm.loop !164

._crit_edge103:                                   ; preds = %._crit_edge.us
  %.not = icmp eq i32 %.2.us, 0
  br i1 %.not, label %.loopexit, label %.preheader.lr.ph

.preheader.lr.ph:                                 ; preds = %._crit_edge103
  %53 = getelementptr inbounds nuw i8, ptr %1, i64 40
  %54 = load i32, ptr %53, align 8, !tbaa !68
  %55 = icmp sgt i32 %54, 0
  %56 = getelementptr inbounds nuw i8, ptr %1, i64 7180
  %57 = getelementptr inbounds nuw i8, ptr %1, i64 5644
  %58 = getelementptr inbounds nuw i8, ptr %1, i64 6668
  %59 = getelementptr inbounds nuw i8, ptr %1, i64 14
  br i1 %55, label %.preheader.us.preheader, label %.loopexit

.preheader.us.preheader:                          ; preds = %.preheader.lr.ph
  %wide.trip.count124 = zext nneg i32 %54 to i64
  br label %.preheader.us

.preheader.us:                                    ; preds = %.preheader.us.preheader, %._crit_edge.us116
  %.074115.us = phi i32 [ %.276.us, %._crit_edge.us116 ], [ 0, %.preheader.us.preheader ]
  %.4114.us = phi i32 [ %.6.us, %._crit_edge.us116 ], [ %.279.us, %.preheader.us.preheader ]
  %.183113.us = phi i32 [ %86, %._crit_edge.us116 ], [ 0, %.preheader.us.preheader ]
  %60 = shl nsw i32 %.183113.us, 4
  %61 = zext nneg i32 %60 to i64
  br label %62

62:                                               ; preds = %.preheader.us, %81
  %indvars.iv121 = phi i64 [ 0, %.preheader.us ], [ %indvars.iv.next122, %81 ]
  %.175111.us = phi i32 [ %.074115.us, %.preheader.us ], [ %.276.us, %81 ]
  %.5110.us = phi i32 [ %.4114.us, %.preheader.us ], [ %.6.us, %81 ]
  %63 = add nuw nsw i64 %indvars.iv121, %61
  %64 = getelementptr inbounds nuw [128 x i8], ptr %56, i64 0, i64 %63
  %65 = load i8, ptr %64, align 1, !tbaa !77
  %.not86.us = icmp eq i8 %65, 0
  br i1 %.not86.us, label %66, label %81

66:                                               ; preds = %62
  %67 = getelementptr inbounds nuw [128 x i32], ptr %57, i64 0, i64 %63
  %68 = load i32, ptr %67, align 4, !tbaa !83
  switch i32 %68, label %81 [
    i32 15, label %75
    i32 14, label %75
    i32 13, label %69
  ]

69:                                               ; preds = %66
  %70 = getelementptr inbounds nuw [128 x i32], ptr %58, i64 0, i64 %63
  %71 = load i32, ptr %70, align 4, !tbaa !83
  %72 = add nsw i32 %.5110.us, -60
  %73 = add nsw i32 %.5110.us, 60
  %74 = icmp slt i32 %71, %72
  %..i92.us = tail call i32 @llvm.smin.i32(i32 %71, i32 %73)
  %.0.i93.us = select i1 %74, i32 %72, i32 %..i92.us
  store i32 %.0.i93.us, ptr %70, align 4, !tbaa !83
  br label %81

75:                                               ; preds = %66, %66
  %76 = getelementptr inbounds nuw [128 x i32], ptr %58, i64 0, i64 %63
  %77 = load i32, ptr %76, align 4, !tbaa !83
  %78 = add nsw i32 %.175111.us, -60
  %79 = add nsw i32 %.175111.us, 60
  %80 = icmp slt i32 %77, %78
  %..i90.us = tail call i32 @llvm.smin.i32(i32 %77, i32 %79)
  %.0.i91.us = select i1 %80, i32 %78, i32 %..i90.us
  store i32 %.0.i91.us, ptr %76, align 4, !tbaa !83
  br label %81

81:                                               ; preds = %75, %69, %66, %62
  %.6.us = phi i32 [ %.5110.us, %62 ], [ %.5110.us, %75 ], [ %.0.i93.us, %69 ], [ %.5110.us, %66 ]
  %.276.us = phi i32 [ %.175111.us, %62 ], [ %.0.i91.us, %75 ], [ %.175111.us, %69 ], [ %.175111.us, %66 ]
  %indvars.iv.next122 = add nuw nsw i64 %indvars.iv121, 1
  %exitcond125.not = icmp eq i64 %indvars.iv.next122, %wide.trip.count124
  br i1 %exitcond125.not, label %._crit_edge.us116, label %62, !llvm.loop !165

._crit_edge.us116:                                ; preds = %81
  %82 = zext nneg i32 %.183113.us to i64
  %83 = getelementptr inbounds nuw [8 x i8], ptr %59, i64 0, i64 %82
  %84 = load i8, ptr %83, align 1, !tbaa !77
  %85 = zext i8 %84 to i32
  %86 = add nuw nsw i32 %.183113.us, %85
  %87 = icmp slt i32 %86, %4
  br i1 %87, label %.preheader.us, label %.loopexit, !llvm.loop !166

.loopexit:                                        ; preds = %._crit_edge.us116, %.preheader95.lr.ph, %2, %.preheader.lr.ph, %._crit_edge103
  ret void
}